target datalayout = "e-m:e-p270:32:32-p271:32:32-p272:64:64-i64:64-i128:128-f80:128-n8:16:32:64-S128"
target triple = "x86_64-pc-linux-gnu"

%struct.bf_context_t = type { ptr, ptr, %struct.BFConstCache, %struct.BFConstCache, ptr }
%struct.BFConstCache = type { %struct.bf_t, i64 }
%struct.bf_t = type { ptr, i32, i64, i64, ptr }
%union.Float64Union = type { double }

; Function Attrs: inlinehint nounwind uwtable
define internal ptr @bf_realloc(ptr noundef %0, ptr noundef %1, i64 noundef %2) #3 {
  %4 = alloca ptr, align 8
  %5 = alloca ptr, align 8
  %6 = alloca i64, align 8
  store ptr %0, ptr %4, align 8, !tbaa !7
  store ptr %1, ptr %5, align 8, !tbaa !12
  store i64 %2, ptr %6, align 8, !tbaa !27
  %7 = load ptr, ptr %4, align 8, !tbaa !7
  %8 = getelementptr inbounds nuw %struct.bf_context_t, ptr %7, i32 0, i32 1
  %9 = load ptr, ptr %8, align 8, !tbaa !13
  %10 = load ptr, ptr %4, align 8, !tbaa !7
  %11 = getelementptr inbounds nuw %struct.bf_context_t, ptr %10, i32 0, i32 0
  %12 = load ptr, ptr %11, align 8, !tbaa !21
  %13 = load ptr, ptr %5, align 8, !tbaa !12
  %14 = load i64, ptr %6, align 8, !tbaa !27
  %15 = call ptr %9(ptr noundef %12, ptr noundef %13, i64 noundef %14)
  ret ptr %15
}

; Function Attrs: nounwind uwtable
define dso_local i32 @bf_resize(ptr noundef %0, i64 noundef %1) #0 {
  %3 = alloca i32, align 4
  %4 = alloca ptr, align 8
  %5 = alloca i64, align 8
  %6 = alloca ptr, align 8
  %7 = alloca i32, align 4
  store ptr %0, ptr %4, align 8, !tbaa !12
  store i64 %1, ptr %5, align 8, !tbaa !27
  call void @llvm.lifetime.start.p0(i64 8, ptr %6) #10
  %8 = load i64, ptr %5, align 8, !tbaa !27
  %9 = load ptr, ptr %4, align 8, !tbaa !12
  %10 = getelementptr inbounds nuw %struct.bf_t, ptr %9, i32 0, i32 3
  %11 = load i64, ptr %10, align 8, !tbaa !25
  %12 = icmp ne i64 %8, %11
  br i1 %12, label %13, label %36

13:                                               ; preds = %2
  %14 = load ptr, ptr %4, align 8, !tbaa !12
  %15 = getelementptr inbounds nuw %struct.bf_t, ptr %14, i32 0, i32 0
  %16 = load ptr, ptr %15, align 8, !tbaa !22
  %17 = load ptr, ptr %4, align 8, !tbaa !12
  %18 = getelementptr inbounds nuw %struct.bf_t, ptr %17, i32 0, i32 4
  %19 = load ptr, ptr %18, align 8, !tbaa !26
  %20 = load i64, ptr %5, align 8, !tbaa !27
  %21 = mul i64 %20, 8
  %22 = call ptr @bf_realloc(ptr noundef %16, ptr noundef %19, i64 noundef %21)
  store ptr %22, ptr %6, align 8, !tbaa !28
  %23 = load ptr, ptr %6, align 8, !tbaa !28
  %24 = icmp ne ptr %23, null
  br i1 %24, label %29, label %25

25:                                               ; preds = %13
  %26 = load i64, ptr %5, align 8, !tbaa !27
  %27 = icmp ne i64 %26, 0
  br i1 %27, label %28, label %29

28:                                               ; preds = %25
  store i32 -1, ptr %3, align 4
  store i32 1, ptr %7, align 4
  br label %37

29:                                               ; preds = %25, %13
  %30 = load ptr, ptr %6, align 8, !tbaa !28
  %31 = load ptr, ptr %4, align 8, !tbaa !12
  %32 = getelementptr inbounds nuw %struct.bf_t, ptr %31, i32 0, i32 4
  store ptr %30, ptr %32, align 8, !tbaa !26
  %33 = load i64, ptr %5, align 8, !tbaa !27
  %34 = load ptr, ptr %4, align 8, !tbaa !12
  %35 = getelementptr inbounds nuw %struct.bf_t, ptr %34, i32 0, i32 3
  store i64 %33, ptr %35, align 8, !tbaa !25
  br label %36

36:                                               ; preds = %29, %2
  store i32 0, ptr %3, align 4
  store i32 1, ptr %7, align 4
  br label %37

37:                                               ; preds = %36, %28
  call void @llvm.lifetime.end.p0(i64 8, ptr %6) #10
  %38 = load i32, ptr %3, align 4
  ret i32 %38
}

; Function Attrs: inlinehint nounwind uwtable
define internal i32 @clz64(i64 noundef %0) #3 {
  %2 = alloca i64, align 8
  store i64 %0, ptr %2, align 8, !tbaa !27
  %3 = load i64, ptr %2, align 8, !tbaa !27
  %4 = call i64 @llvm.ctlz.i64(i64 %3, i1 true)
  %5 = trunc i64 %4 to i32
  ret i32 %5
}

; Function Attrs: nounwind uwtable
define dso_local void @bf_set_zero(ptr noundef %0, i32 noundef %1) #0 {
  %3 = alloca ptr, align 8
  %4 = alloca i32, align 4
  store ptr %0, ptr %3, align 8, !tbaa !12
  store i32 %1, ptr %4, align 4, !tbaa !29
  %5 = load ptr, ptr %3, align 8, !tbaa !12
  %6 = call i32 @bf_resize(ptr noundef %5, i64 noundef 0)
  %7 = load ptr, ptr %3, align 8, !tbaa !12
  %8 = getelementptr inbounds nuw %struct.bf_t, ptr %7, i32 0, i32 2
  store i64 -9223372036854775808, ptr %8, align 8, !tbaa !24
  %9 = load i32, ptr %4, align 4, !tbaa !29
  %10 = load ptr, ptr %3, align 8, !tbaa !12
  %11 = getelementptr inbounds nuw %struct.bf_t, ptr %10, i32 0, i32 1
  store i32 %9, ptr %11, align 8, !tbaa !23
  ret void
}

; Function Attrs: nounwind uwtable
define dso_local void @bf_set_inf(ptr noundef %0, i32 noundef %1) #0 {
  %3 = alloca ptr, align 8
  %4 = alloca i32, align 4
  store ptr %0, ptr %3, align 8, !tbaa !12
  store i32 %1, ptr %4, align 4, !tbaa !29
  %5 = load ptr, ptr %3, align 8, !tbaa !12
  %6 = call i32 @bf_resize(ptr noundef %5, i64 noundef 0)
  %7 = load ptr, ptr %3, align 8, !tbaa !12
  %8 = getelementptr inbounds nuw %struct.bf_t, ptr %7, i32 0, i32 2
  store i64 9223372036854775806, ptr %8, align 8, !tbaa !24
  %9 = load i32, ptr %4, align 4, !tbaa !29
  %10 = load ptr, ptr %3, align 8, !tbaa !12
  %11 = getelementptr inbounds nuw %struct.bf_t, ptr %10, i32 0, i32 1
  store i32 %9, ptr %11, align 8, !tbaa !23
  ret void
}

; Function Attrs: nounwind uwtable
define dso_local void @bf_set_nan(ptr noundef %0) #0 {
  %2 = alloca ptr, align 8
  store ptr %0, ptr %2, align 8, !tbaa !12
  %3 = load ptr, ptr %2, align 8, !tbaa !12
  %4 = call i32 @bf_resize(ptr noundef %3, i64 noundef 0)
  %5 = load ptr, ptr %2, align 8, !tbaa !12
  %6 = getelementptr inbounds nuw %struct.bf_t, ptr %5, i32 0, i32 2
  store i64 9223372036854775807, ptr %6, align 8, !tbaa !24
  %7 = load ptr, ptr %2, align 8, !tbaa !12
  %8 = getelementptr inbounds nuw %struct.bf_t, ptr %7, i32 0, i32 1
  store i32 0, ptr %8, align 8, !tbaa !23
  ret void
}

; Function Attrs: nounwind uwtable
define dso_local i32 @bf_set_float64(ptr noundef %0, double noundef %1) #0 {
  %3 = alloca i32, align 4
  %4 = alloca ptr, align 8
  %5 = alloca double, align 8
  %6 = alloca %union.Float64Union, align 8
  %7 = alloca i64, align 8
  %8 = alloca i32, align 4
  %9 = alloca i32, align 4
  %10 = alloca i32, align 4
  %11 = alloca i32, align 4
  store ptr %0, ptr %4, align 8, !tbaa !12
  store double %1, ptr %5, align 8, !tbaa !72
  call void @llvm.lifetime.start.p0(i64 8, ptr %6) #10
  call void @llvm.lifetime.start.p0(i64 8, ptr %7) #10
  call void @llvm.lifetime.start.p0(i64 4, ptr %8) #10
  call void @llvm.lifetime.start.p0(i64 4, ptr %9) #10
  call void @llvm.lifetime.start.p0(i64 4, ptr %10) #10
  %12 = load double, ptr %5, align 8, !tbaa !72
  store double %12, ptr %6, align 8, !tbaa !71
  %13 = load i64, ptr %6, align 8, !tbaa !71
  %14 = lshr i64 %13, 63
  %15 = trunc i64 %14 to i32
  store i32 %15, ptr %10, align 4, !tbaa !29
  %16 = load i64, ptr %6, align 8, !tbaa !71
  %17 = lshr i64 %16, 52
  %18 = and i64 %17, 2047
  %19 = trunc i64 %18 to i32
  store i32 %19, ptr %9, align 4, !tbaa !29
  %20 = load i64, ptr %6, align 8, !tbaa !71
  %21 = and i64 %20, 4503599627370495
  store i64 %21, ptr %7, align 8, !tbaa !27
  %22 = load i32, ptr %9, align 4, !tbaa !29
  %23 = icmp eq i32 %22, 2047
  br i1 %23, label %24, label %33

24:                                               ; preds = %2
  %25 = load i64, ptr %7, align 8, !tbaa !27
  %26 = icmp ne i64 %25, 0
  br i1 %26, label %27, label %29

27:                                               ; preds = %24
  %28 = load ptr, ptr %4, align 8, !tbaa !12
  call void @bf_set_nan(ptr noundef %28)
  br label %32

29:                                               ; preds = %24
  %30 = load ptr, ptr %4, align 8, !tbaa !12
  %31 = load i32, ptr %10, align 4, !tbaa !29
  call void @bf_set_inf(ptr noundef %30, i32 noundef %31)
  br label %32

32:                                               ; preds = %29, %27
  br label %79

33:                                               ; preds = %2
  %34 = load i32, ptr %9, align 4, !tbaa !29
  %35 = icmp eq i32 %34, 0
  br i1 %35, label %36, label %54

36:                                               ; preds = %33
  %37 = load i64, ptr %7, align 8, !tbaa !27
  %38 = icmp eq i64 %37, 0
  br i1 %38, label %39, label %42

39:                                               ; preds = %36
  %40 = load ptr, ptr %4, align 8, !tbaa !12
  %41 = load i32, ptr %10, align 4, !tbaa !29
  call void @bf_set_zero(ptr noundef %40, i32 noundef %41)
  br label %53

42:                                               ; preds = %36
  %43 = load i64, ptr %7, align 8, !tbaa !27
  %44 = shl i64 %43, 12
  store i64 %44, ptr %7, align 8, !tbaa !27
  %45 = load i64, ptr %7, align 8, !tbaa !27
  %46 = call i32 @clz64(i64 noundef %45)
  store i32 %46, ptr %8, align 4, !tbaa !29
  %47 = load i32, ptr %8, align 4, !tbaa !29
  %48 = load i64, ptr %7, align 8, !tbaa !27
  %49 = zext i32 %47 to i64
  %50 = shl i64 %48, %49
  store i64 %50, ptr %7, align 8, !tbaa !27
  %51 = load i32, ptr %8, align 4, !tbaa !29
  %52 = sub i32 0, %51
  store i32 %52, ptr %9, align 4, !tbaa !29
  br label %58

53:                                               ; preds = %39
  br label %78

54:                                               ; preds = %33
  %55 = load i64, ptr %7, align 8, !tbaa !27
  %56 = shl i64 %55, 11
  %57 = or i64 %56, -9223372036854775808
  store i64 %57, ptr %7, align 8, !tbaa !27
  br label %58

58:                                               ; preds = %54, %42
  %59 = load i32, ptr %9, align 4, !tbaa !29
  %60 = sub i32 %59, 1023
  %61 = add i32 %60, 1
  %62 = sext i32 %61 to i64
  %63 = load ptr, ptr %4, align 8, !tbaa !12
  %64 = getelementptr inbounds nuw %struct.bf_t, ptr %63, i32 0, i32 2
  store i64 %62, ptr %64, align 8, !tbaa !24
  %65 = load ptr, ptr %4, align 8, !tbaa !12
  %66 = call i32 @bf_resize(ptr noundef %65, i64 noundef 1)
  %67 = icmp ne i32 %66, 0
  br i1 %67, label %68, label %69

68:                                               ; preds = %58
  br label %80

69:                                               ; preds = %58
  %70 = load i64, ptr %7, align 8, !tbaa !27
  %71 = load ptr, ptr %4, align 8, !tbaa !12
  %72 = getelementptr inbounds nuw %struct.bf_t, ptr %71, i32 0, i32 4
  %73 = load ptr, ptr %72, align 8, !tbaa !26
  %74 = getelementptr inbounds i64, ptr %73, i64 0
  store i64 %70, ptr %74, align 8, !tbaa !27
  %75 = load i32, ptr %10, align 4, !tbaa !29
  %76 = load ptr, ptr %4, align 8, !tbaa !12
  %77 = getelementptr inbounds nuw %struct.bf_t, ptr %76, i32 0, i32 1
  store i32 %75, ptr %77, align 8, !tbaa !23
  br label %78

78:                                               ; preds = %69, %53
  br label %79

79:                                               ; preds = %78, %32
  store i32 0, ptr %3, align 4
  store i32 1, ptr %11, align 4
  br label %82

80:                                               ; preds = %68
  %81 = load ptr, ptr %4, align 8, !tbaa !12
  call void @bf_set_nan(ptr noundef %81)
  store i32 32, ptr %3, align 4
  store i32 1, ptr %11, align 4
  br label %82

82:                                               ; preds = %80, %79
  call void @llvm.lifetime.end.p0(i64 4, ptr %10) #10
  call void @llvm.lifetime.end.p0(i64 4, ptr %9) #10
  call void @llvm.lifetime.end.p0(i64 4, ptr %8) #10
  call void @llvm.lifetime.end.p0(i64 8, ptr %7) #10
  call void @llvm.lifetime.end.p0(i64 8, ptr %6) #10
  %83 = load i32, ptr %3, align 4
  ret i32 %83
}