; Function Attrs: nounwind uwtable
define dso_local range(i32 0, 33) i32 @bf_set_float64(ptr noundef captures(none) initializes((8, 12), (16, 24)) %0, double noundef %1) local_unnamed_addr #2 {
  %3 = bitcast double %1 to i64
  %4 = lshr i64 %3, 63
  %5 = trunc nuw nsw i64 %4 to i32
  %6 = lshr i64 %3, 52
  %7 = trunc nuw nsw i64 %6 to i32
  %8 = and i32 %7, 2047
  %9 = and i64 %3, 4503599627370495
  switch i32 %8, label %47 [
    i32 2047, label %10
    i32 0, label %29
  ]

10:                                               ; preds = %2
  %.not30 = icmp eq i64 %9, 0
  %11 = getelementptr inbounds nuw i8, ptr %0, i64 24
  %12 = load i64, ptr %11, align 8, !tbaa !32
  %.not.i.i31 = icmp eq i64 %12, 0
  br i1 %.not30, label %21, label %13

13:                                               ; preds = %10
  br i1 %.not.i.i31, label %bf_set_nan.exit, label %14

14:                                               ; preds = %13
  %15 = load ptr, ptr %0, align 8, !tbaa !28
  %16 = getelementptr inbounds nuw i8, ptr %0, i64 32
  %17 = load ptr, ptr %16, align 8, !tbaa !29
  %.val.i.i = load ptr, ptr %15, align 8, !tbaa !19
  %18 = getelementptr i8, ptr %15, i64 8
  %.val13.i.i = load ptr, ptr %18, align 8, !tbaa !7
  %19 = tail call ptr %.val13.i.i(ptr noundef %.val.i.i, ptr noundef %17, i64 noundef 0) #21
  store ptr %19, ptr %16, align 8, !tbaa !29
  store i64 0, ptr %11, align 8, !tbaa !32
  br label %bf_set_nan.exit

bf_set_nan.exit:                                  ; preds = %13, %14
  %20 = getelementptr inbounds nuw i8, ptr %0, i64 16
  store i64 9223372036854775807, ptr %20, align 8, !tbaa !31
  br label %72

21:                                               ; preds = %10
  br i1 %.not.i.i31, label %bf_set_inf.exit, label %22

22:                                               ; preds = %21
  %23 = load ptr, ptr %0, align 8, !tbaa !28
  %24 = getelementptr inbounds nuw i8, ptr %0, i64 32
  %25 = load ptr, ptr %24, align 8, !tbaa !29
  %.val.i.i32 = load ptr, ptr %23, align 8, !tbaa !19
  %26 = getelementptr i8, ptr %23, i64 8
  %.val13.i.i33 = load ptr, ptr %26, align 8, !tbaa !7
  %27 = tail call ptr %.val13.i.i33(ptr noundef %.val.i.i32, ptr noundef %25, i64 noundef 0) #21
  store ptr %27, ptr %24, align 8, !tbaa !29
  store i64 0, ptr %11, align 8, !tbaa !32
  br label %bf_set_inf.exit

bf_set_inf.exit:                                  ; preds = %21, %22
  %28 = getelementptr inbounds nuw i8, ptr %0, i64 16
  store i64 9223372036854775806, ptr %28, align 8, !tbaa !31
  br label %72

29:                                               ; preds = %2
  %30 = icmp eq i64 %9, 0
  br i1 %30, label %31, label %41

31:                                               ; preds = %29
  %32 = getelementptr inbounds nuw i8, ptr %0, i64 24
  %33 = load i64, ptr %32, align 8, !tbaa !32
  %.not.i.i34 = icmp eq i64 %33, 0
  br i1 %.not.i.i34, label %bf_set_zero.exit, label %34

34:                                               ; preds = %31
  %35 = load ptr, ptr %0, align 8, !tbaa !28
  %36 = getelementptr inbounds nuw i8, ptr %0, i64 32
  %37 = load ptr, ptr %36, align 8, !tbaa !29
  %.val.i.i35 = load ptr, ptr %35, align 8, !tbaa !19
  %38 = getelementptr i8, ptr %35, i64 8
  %.val13.i.i36 = load ptr, ptr %38, align 8, !tbaa !7
  %39 = tail call ptr %.val13.i.i36(ptr noundef %.val.i.i35, ptr noundef %37, i64 noundef 0) #21
  store ptr %39, ptr %36, align 8, !tbaa !29
  store i64 0, ptr %32, align 8, !tbaa !32
  br label %bf_set_zero.exit

bf_set_zero.exit:                                 ; preds = %31, %34
  %40 = getelementptr inbounds nuw i8, ptr %0, i64 16
  store i64 -9223372036854775808, ptr %40, align 8, !tbaa !31
  br label %72

41:                                               ; preds = %29
  %42 = shl nuw i64 %9, 12
  %43 = tail call range(i64 0, 65) i64 @llvm.ctlz.i64(i64 range(i64 1, 0) %42, i1 true)
  %44 = trunc nuw nsw i64 %43 to i32
  %45 = shl i64 %42, %43
  %46 = sub nsw i32 0, %44
  br label %50

47:                                               ; preds = %2
  %48 = shl nuw nsw i64 %9, 11
  %49 = or disjoint i64 %48, -9223372036854775808
  br label %50

50:                                               ; preds = %47, %41
  %.027 = phi i64 [ %45, %41 ], [ %49, %47 ]
  %.026 = phi i32 [ %46, %41 ], [ %8, %47 ]
  %51 = add nsw i32 %.026, -1022
  %52 = sext i32 %51 to i64
  %53 = getelementptr inbounds nuw i8, ptr %0, i64 16
  store i64 %52, ptr %53, align 8, !tbaa !31
  %54 = getelementptr inbounds nuw i8, ptr %0, i64 24
  %55 = load i64, ptr %54, align 8, !tbaa !32
  %.not.i = icmp eq i64 %55, 1
  br i1 %.not.i, label %._crit_edge, label %56

._crit_edge:                                      ; preds = %50
  %.phi.trans.insert = getelementptr inbounds nuw i8, ptr %0, i64 32
  %.pre = load ptr, ptr %.phi.trans.insert, align 8, !tbaa !29
  br label %64

56:                                               ; preds = %50
  %57 = load ptr, ptr %0, align 8, !tbaa !28
  %58 = getelementptr inbounds nuw i8, ptr %0, i64 32
  %59 = load ptr, ptr %58, align 8, !tbaa !29
  %.val.i = load ptr, ptr %57, align 8, !tbaa !19
  %60 = getelementptr i8, ptr %57, i64 8
  %.val13.i = load ptr, ptr %60, align 8, !tbaa !7
  %61 = tail call ptr %.val13.i(ptr noundef %.val.i, ptr noundef %59, i64 noundef 8) #21
  %62 = icmp eq ptr %61, null
  br i1 %62, label %bf_resize.exit, label %63

63:                                               ; preds = %56
  store ptr %61, ptr %58, align 8, !tbaa !29
  store i64 1, ptr %54, align 8, !tbaa !32
  br label %64

64:                                               ; preds = %._crit_edge, %63
  %65 = phi ptr [ %.pre, %._crit_edge ], [ %61, %63 ]
  store i64 %.027, ptr %65, align 8, !tbaa !33
  br label %72

bf_resize.exit:                                   ; preds = %56
  %66 = load i64, ptr %54, align 8, !tbaa !32
  %.not.i.i37 = icmp eq i64 %66, 0
  br i1 %.not.i.i37, label %bf_set_nan.exit40, label %67

67:                                               ; preds = %bf_resize.exit
  %68 = load ptr, ptr %0, align 8, !tbaa !28
  %69 = load ptr, ptr %58, align 8, !tbaa !29
  %.val.i.i38 = load ptr, ptr %68, align 8, !tbaa !19
  %70 = getelementptr i8, ptr %68, i64 8
  %.val13.i.i39 = load ptr, ptr %70, align 8, !tbaa !7
  %71 = tail call ptr %.val13.i.i39(ptr noundef %.val.i.i38, ptr noundef %69, i64 noundef 0) #21
  store ptr %71, ptr %58, align 8, !tbaa !29
  store i64 0, ptr %54, align 8, !tbaa !32
  br label %bf_set_nan.exit40

bf_set_nan.exit40:                                ; preds = %bf_resize.exit, %67
  store i64 9223372036854775807, ptr %53, align 8, !tbaa !31
  br label %72

72:                                               ; preds = %bf_set_inf.exit, %bf_set_nan.exit, %64, %bf_set_zero.exit, %bf_set_nan.exit40
  %.sink = phi i32 [ %5, %bf_set_inf.exit ], [ 0, %bf_set_nan.exit ], [ %5, %64 ], [ %5, %bf_set_zero.exit ], [ 0, %bf_set_nan.exit40 ]
  %.0 = phi i32 [ 0, %bf_set_inf.exit ], [ 0, %bf_set_nan.exit ], [ 0, %64 ], [ 0, %bf_set_zero.exit ], [ 32, %bf_set_nan.exit40 ]
  %73 = getelementptr inbounds nuw i8, ptr %0, i64 8
  store i32 %.sink, ptr %73, align 8, !tbaa !30
  ret i32 %.0
}